target datalayout = "e-m:e-p270:32:32-p271:32:32-p272:64:64-i64:64-i128:128-f80:128-n8:16:32:64-S128"
target triple = "x86_64-pc-linux-gnu"

%"class.std::basic_ios" = type { %"class.std::ios_base", ptr, i8, i8, ptr, ptr, ptr, ptr }
%"class.std::ios_base" = type { ptr, i64, i64, i32, i32, i32, ptr, %"struct.std::ios_base::_Words", [8 x %"struct.std::ios_base::_Words"], i32, ptr, %"class.std::locale" }
%"struct.std::ios_base::_Words" = type { ptr, i64 }
%"class.std::locale" = type { ptr }
%"class.std::__cxx11::basic_string" = type { %"struct.std::__cxx11::basic_string<char>::_Alloc_hider", i64, %union.anon }
%"struct.std::__cxx11::basic_string<char>::_Alloc_hider" = type { ptr }
%union.anon = type { i64, [8 x i8] }
%"class.std::__shared_count" = type { ptr }
%"struct.std::__detail::_Hash_node_base" = type { ptr }
%"struct.std::__detail::_Prime_rehash_policy" = type { float, i64 }
%"struct.Luau::TypeArena" = type { %"class.Luau::TypedAllocator", %"class.Luau::TypedAllocator.129", ptr }
%"class.Luau::TypedAllocator" = type { i8, %"class.std::vector.124", i64 }
%"class.std::vector.124" = type { %"struct.std::_Vector_base.125" }
%"struct.std::_Vector_base.125" = type { %"struct.std::_Vector_base<Luau::Type *, std::allocator<Luau::Type *>>::_Vector_impl" }
%"struct.std::_Vector_base<Luau::Type *, std::allocator<Luau::Type *>>::_Vector_impl" = type { %"struct.std::_Vector_base<Luau::Type *, std::allocator<Luau::Type *>>::_Vector_impl_data" }
%"struct.std::_Vector_base<Luau::Type *, std::allocator<Luau::Type *>>::_Vector_impl_data" = type { ptr, ptr, ptr }
%"class.Luau::TypedAllocator.129" = type { i8, %"class.std::vector.130", i64 }
%"class.std::vector.130" = type { %"struct.std::_Vector_base.131" }
%"struct.std::_Vector_base.131" = type { %"struct.std::_Vector_base<Luau::TypePackVar *, std::allocator<Luau::TypePackVar *>>::_Vector_impl" }
%"struct.std::_Vector_base<Luau::TypePackVar *, std::allocator<Luau::TypePackVar *>>::_Vector_impl" = type { %"struct.std::_Vector_base<Luau::TypePackVar *, std::allocator<Luau::TypePackVar *>>::_Vector_impl_data" }
%"struct.std::_Vector_base<Luau::TypePackVar *, std::allocator<Luau::TypePackVar *>>::_Vector_impl_data" = type { ptr, ptr, ptr }
%"class.std::shared_ptr.135" = type { %"class.std::__shared_ptr.136" }
%"class.std::__shared_ptr.136" = type { ptr, %"class.std::__shared_count" }
%"class.std::shared_ptr.138" = type { %"class.std::__shared_ptr.139" }
%"class.std::__shared_ptr.139" = type { ptr, %"class.std::__shared_count" }
%"class.std::vector.266" = type { %"struct.std::_Vector_base.267" }
%"struct.std::_Vector_base.267" = type { %"struct.std::_Vector_base<Luau::LintWarning, std::allocator<Luau::LintWarning>>::_Vector_impl" }
%"struct.std::_Vector_base<Luau::LintWarning, std::allocator<Luau::LintWarning>>::_Vector_impl" = type { %"struct.std::_Vector_base<Luau::LintWarning, std::allocator<Luau::LintWarning>>::_Vector_impl_data" }
%"struct.std::_Vector_base<Luau::LintWarning, std::allocator<Luau::LintWarning>>::_Vector_impl_data" = type { ptr, ptr, ptr }
%"struct.Luau::DenseHashPointer" = type { i8 }
%"struct.std::equal_to.273" = type { i8 }
%"class.std::vector.412" = type { %"struct.std::_Vector_base.413" }
%"struct.std::_Vector_base.413" = type { %"struct.std::_Vector_base<Luau::TypeError, std::allocator<Luau::TypeError>>::_Vector_impl" }
%"struct.std::_Vector_base<Luau::TypeError, std::allocator<Luau::TypeError>>::_Vector_impl" = type { %"struct.std::_Vector_base<Luau::TypeError, std::allocator<Luau::TypeError>>::_Vector_impl_data" }
%"struct.std::_Vector_base<Luau::TypeError, std::allocator<Luau::TypeError>>::_Vector_impl_data" = type { ptr, ptr, ptr }
%"struct.Luau::LintResult" = type { %"class.std::vector.266", %"class.std::vector.266" }
%"class.doctest::String" = type { %union.anon.436 }
%union.anon.436 = type { %"struct.doctest::String::view", [8 x i8] }
%"struct.doctest::String::view" = type { ptr, i32, i32 }
%"class.std::unordered_map.511" = type { %"class.std::_Hashtable.512" }
%"class.std::_Hashtable.512" = type { ptr, i64, %"struct.std::__detail::_Hash_node_base", i64, %"struct.std::__detail::_Prime_rehash_policy", ptr }
%"class.std::unordered_map.497" = type { %"class.std::_Hashtable.498" }
%"class.std::_Hashtable.498" = type { ptr, i64, %"struct.std::__detail::_Hash_node_base", i64, %"struct.std::__detail::_Prime_rehash_policy", ptr }
%"struct.doctest::detail::MessageBuilder" = type <{ %"struct.doctest::MessageData", ptr, i8, [7 x i8] }>
%"struct.doctest::MessageData" = type { %"class.doctest::String", ptr, i32, i32 }
%"struct.Luau::Module" = type { %"class.std::__cxx11::basic_string", %"class.std::__cxx11::basic_string", %"struct.Luau::TypeArena", %"struct.Luau::TypeArena", %"class.std::shared_ptr.135", %"class.std::shared_ptr.138", %"class.std::vector.458", %"class.Luau::DenseHashMap.463", %"class.Luau::DenseHashMap.468", %"class.Luau::DenseHashMap.463", %"class.Luau::DenseHashMap.471", %"class.Luau::DenseHashMap.471", %"class.Luau::DenseHashMap.471", %"class.Luau::DenseHashMap.476", %"class.Luau::DenseHashMap.481", %"class.Luau::DenseHashMap.486", %"class.Luau::DenseHashMap.491", %"class.Luau::DenseHashMap.494", %"class.std::unordered_map.497", %"class.std::vector.412", %"struct.Luau::LintResult", i32, i32, double, i8, i8, ptr, %"class.std::unordered_map.511" }
%"class.std::vector.458" = type { %"struct.std::_Vector_base.459" }
%"struct.std::_Vector_base.459" = type { %"struct.std::_Vector_base<std::pair<Luau::Location, std::shared_ptr<Luau::Scope>>, std::allocator<std::pair<Luau::Location, std::shared_ptr<Luau::Scope>>>>::_Vector_impl" }
%"struct.std::_Vector_base<std::pair<Luau::Location, std::shared_ptr<Luau::Scope>>, std::allocator<std::pair<Luau::Location, std::shared_ptr<Luau::Scope>>>>::_Vector_impl" = type { %"struct.std::_Vector_base<std::pair<Luau::Location, std::shared_ptr<Luau::Scope>>, std::allocator<std::pair<Luau::Location, std::shared_ptr<Luau::Scope>>>>::_Vector_impl_data" }
%"struct.std::_Vector_base<std::pair<Luau::Location, std::shared_ptr<Luau::Scope>>, std::allocator<std::pair<Luau::Location, std::shared_ptr<Luau::Scope>>>>::_Vector_impl_data" = type { ptr, ptr, ptr }
%"class.Luau::DenseHashMap.468" = type { %"class.Luau::detail::DenseHashTable.469" }
%"class.Luau::detail::DenseHashTable.469" = type <{ ptr, i64, i64, ptr, %"struct.Luau::DenseHashPointer", %"struct.std::equal_to.465", [6 x i8] }>
%"struct.std::equal_to.465" = type { i8 }
%"class.Luau::DenseHashMap.463" = type { %"class.Luau::detail::DenseHashTable.464" }
%"class.Luau::detail::DenseHashTable.464" = type <{ ptr, i64, i64, ptr, %"struct.Luau::DenseHashPointer", %"struct.std::equal_to.465", [6 x i8] }>
%"class.Luau::DenseHashMap.471" = type { %"class.Luau::detail::DenseHashTable.472" }
%"class.Luau::detail::DenseHashTable.472" = type <{ ptr, i64, i64, ptr, %"struct.Luau::DenseHashPointer", %"struct.std::equal_to.473", [6 x i8] }>
%"struct.std::equal_to.473" = type { i8 }
%"class.Luau::DenseHashMap.476" = type { %"class.Luau::detail::DenseHashTable.477" }
%"class.Luau::detail::DenseHashTable.477" = type <{ ptr, i64, i64, ptr, %"struct.Luau::DenseHashPointer", %"struct.std::equal_to.478", [6 x i8] }>
%"struct.std::equal_to.478" = type { i8 }
%"class.Luau::DenseHashMap.481" = type { %"class.Luau::detail::DenseHashTable.482" }
%"class.Luau::detail::DenseHashTable.482" = type <{ ptr, i64, i64, ptr, %"struct.Luau::DenseHashPointer", %"struct.std::equal_to.483", [6 x i8] }>
%"struct.std::equal_to.483" = type { i8 }
%"class.Luau::DenseHashMap.486" = type { %"class.Luau::detail::DenseHashTable.487" }
%"class.Luau::detail::DenseHashTable.487" = type <{ ptr, i64, i64, ptr, %"struct.Luau::DenseHashPointer", %"struct.std::equal_to.488", [6 x i8] }>
%"struct.std::equal_to.488" = type { i8 }
%"class.Luau::DenseHashMap.491" = type { %"class.Luau::detail::DenseHashTable.492" }
%"class.Luau::detail::DenseHashTable.492" = type <{ ptr, i64, i64, ptr, %"struct.Luau::DenseHashPointer", %"struct.std::equal_to.273", [6 x i8] }>
%"class.Luau::DenseHashMap.494" = type { %"class.Luau::detail::DenseHashTable.495" }
%"class.Luau::detail::DenseHashTable.495" = type <{ ptr, i64, i64, ptr, %"struct.Luau::DenseHashPointer", %"struct.std::equal_to.473", [6 x i8] }>
%"class.std::__cxx11::basic_stringstream" = type { %"class.std::basic_iostream.base", %"class.std::__cxx11::basic_stringbuf", %"class.std::basic_ios" }
%"class.std::basic_iostream.base" = type { %"class.std::basic_istream.base", %"class.std::basic_ostream.base" }
%"class.std::basic_istream.base" = type { ptr, i64 }
%"class.std::basic_ostream.base" = type { ptr }
%"class.std::__cxx11::basic_stringbuf" = type { %"class.std::basic_streambuf", i32, %"class.std::__cxx11::basic_string" }
%"class.std::basic_streambuf" = type { ptr, ptr, ptr, ptr, ptr, ptr, ptr, %"class.std::locale" }

@.str.61 = private unnamed_addr constant [105 x i8] c"generated/home/dtcxzyw/WorkSpace/Projects/compilers/llvm-opt-benchmark/bench/luau/luau/tests/Fixture.cpp\00", align 1

; Function Attrs: mustprogress uwtable
define linkonce_odr dso_local noundef nonnull align 8 dereferenceable(49) ptr @_ZN7doctest6detail14MessageBuildermlINSt7__cxx1112basic_stringIcSt11char_traitsIcESaIcEEEEERS1_RKT_(ptr noundef nonnull align 8 dereferenceable(49) %0, ptr noundef nonnull align 8 dereferenceable(32) %1) #6 comdat align 2 {
  %3 = alloca ptr, align 8
  %4 = alloca ptr, align 8
  store ptr %0, ptr %3, align 8
  store ptr %1, ptr %4, align 8
  %5 = load ptr, ptr %3, align 8
  %6 = load ptr, ptr %4, align 8
  %7 = call noundef nonnull align 8 dereferenceable(49) ptr @_ZN7doctest6detail14MessageBuildercmINSt7__cxx1112basic_stringIcSt11char_traitsIcESaIcEEEEERS1_RKT_(ptr noundef nonnull align 8 dereferenceable(49) %5, ptr noundef nonnull align 8 dereferenceable(32) %6)
  ret ptr %7
}

; Function Attrs: mustprogress uwtable
define dso_local void @_ZN4Luau7Fixture10dumpErrorsERKNS_6ModuleE(ptr noundef nonnull align 8 dereferenceable(2232) %0, ptr noundef nonnull align 8 dereferenceable(952) %1) #6 align 2 personality ptr @__gxx_personality_v0 {
  %3 = alloca ptr, align 8
  %4 = alloca ptr, align 8
  %5 = alloca %"class.std::__cxx11::basic_stringstream", align 8
  %6 = alloca ptr, align 8
  %7 = alloca i32, align 4
  %8 = alloca %"class.std::__cxx11::basic_string", align 8
  %9 = alloca %"struct.doctest::detail::MessageBuilder", align 8
  %10 = alloca %"class.std::__cxx11::basic_string", align 8
  store ptr %0, ptr %3, align 8
  store ptr %1, ptr %4, align 8
  %11 = load ptr, ptr %3, align 8
  call void @_ZNSt7__cxx1118basic_stringstreamIcSt11char_traitsIcESaIcEEC1Ev(ptr noundef nonnull align 8 dereferenceable(128) %5)
  %12 = getelementptr inbounds i8, ptr %5, i64 16
  %13 = load ptr, ptr %4, align 8
  %14 = getelementptr inbounds %"struct.Luau::Module", ptr %13, i32 0, i32 19
  invoke void @_ZN4Luau7Fixture10dumpErrorsERSoRKSt6vectorINS_9TypeErrorESaIS3_EE(ptr noundef nonnull align 8 dereferenceable(2232) %11, ptr noundef nonnull align 8 dereferenceable(8) %12, ptr noundef nonnull align 8 dereferenceable(24) %14)
          to label %15 unwind label %28

15:                                               ; preds = %2
  invoke void @_ZNKSt7__cxx1118basic_stringstreamIcSt11char_traitsIcESaIcEE3strEv(ptr dead_on_unwind writable sret(%"class.std::__cxx11::basic_string") align 8 %8, ptr noundef nonnull align 8 dereferenceable(128) %5)
          to label %16 unwind label %28

16:                                               ; preds = %15
  %17 = call noundef zeroext i1 @_ZNKSt7__cxx1112basic_stringIcSt11char_traitsIcESaIcEE5emptyEv(ptr noundef nonnull align 8 dereferenceable(32) %8) #2
  %18 = xor i1 %17, true
  call void @_ZNSt7__cxx1112basic_stringIcSt11char_traitsIcESaIcEED1Ev(ptr noundef nonnull align 8 dereferenceable(32) %8) #2
  br i1 %18, label %19, label %45

19:                                               ; preds = %16
  br label %20

20:                                               ; preds = %19
  invoke void @_ZN7doctest6detail14MessageBuilderC1EPKciNS_10assertType4EnumE(ptr noundef nonnull align 8 dereferenceable(49) %9, ptr noundef @.str.61, i32 noundef 521, i32 noundef 1)
          to label %21 unwind label %28

21:                                               ; preds = %20
  invoke void @_ZNKSt7__cxx1118basic_stringstreamIcSt11char_traitsIcESaIcEE3strEv(ptr dead_on_unwind writable sret(%"class.std::__cxx11::basic_string") align 8 %10, ptr noundef nonnull align 8 dereferenceable(128) %5)
          to label %22 unwind label %32

22:                                               ; preds = %21
  %23 = invoke noundef nonnull align 8 dereferenceable(49) ptr @_ZN7doctest6detail14MessageBuildermlINSt7__cxx1112basic_stringIcSt11char_traitsIcESaIcEEEEERS1_RKT_(ptr noundef nonnull align 8 dereferenceable(49) %9, ptr noundef nonnull align 8 dereferenceable(32) %10)
          to label %24 unwind label %36

24:                                               ; preds = %22
  call void @_ZNSt7__cxx1112basic_stringIcSt11char_traitsIcESaIcEED1Ev(ptr noundef nonnull align 8 dereferenceable(32) %10) #2
  %25 = invoke noundef zeroext i1 @_ZN7doctest6detail14MessageBuilder3logEv(ptr noundef nonnull align 8 dereferenceable(49) %9)
          to label %26 unwind label %32

26:                                               ; preds = %24
  br i1 %25, label %27, label %40

27:                                               ; preds = %26
  call void asm sideeffect "int $$3\0A", "~{dirflag},~{fpsr},~{flags}"() #2, !srcloc !28
  br label %40

28:                                               ; preds = %20, %15, %2
  %29 = landingpad { ptr, i32 }
          cleanup
  %30 = extractvalue { ptr, i32 } %29, 0
  store ptr %30, ptr %6, align 8
  %31 = extractvalue { ptr, i32 } %29, 1
  store i32 %31, ptr %7, align 4
  br label %46

32:                                               ; preds = %40, %24, %21
  %33 = landingpad { ptr, i32 }
          cleanup
  %34 = extractvalue { ptr, i32 } %33, 0
  store ptr %34, ptr %6, align 8
  %35 = extractvalue { ptr, i32 } %33, 1
  store i32 %35, ptr %7, align 4
  br label %44

36:                                               ; preds = %22
  %37 = landingpad { ptr, i32 }
          cleanup
  %38 = extractvalue { ptr, i32 } %37, 0
  store ptr %38, ptr %6, align 8
  %39 = extractvalue { ptr, i32 } %37, 1
  store i32 %39, ptr %7, align 4
  call void @_ZNSt7__cxx1112basic_stringIcSt11char_traitsIcESaIcEED1Ev(ptr noundef nonnull align 8 dereferenceable(32) %10) #2
  br label %44

40:                                               ; preds = %27, %26
  invoke void @_ZN7doctest6detail14MessageBuilder5reactEv(ptr noundef nonnull align 8 dereferenceable(49) %9)
          to label %41 unwind label %32

41:                                               ; preds = %40
  call void @_ZN7doctest6detail14MessageBuilderD1Ev(ptr noundef nonnull align 8 dereferenceable(49) %9) #2
  br label %42

42:                                               ; preds = %41
  br label %43

43:                                               ; preds = %42
  br label %45

44:                                               ; preds = %36, %32
  call void @_ZN7doctest6detail14MessageBuilderD1Ev(ptr noundef nonnull align 8 dereferenceable(49) %9) #2
  br label %46

45:                                               ; preds = %43, %16
  call void @_ZNSt7__cxx1118basic_stringstreamIcSt11char_traitsIcESaIcEED1Ev(ptr noundef nonnull align 8 dereferenceable(128) %5) #2
  ret void

46:                                               ; preds = %44, %28
  call void @_ZNSt7__cxx1118basic_stringstreamIcSt11char_traitsIcESaIcEED1Ev(ptr noundef nonnull align 8 dereferenceable(128) %5) #2
  br label %47

47:                                               ; preds = %46
  %48 = load ptr, ptr %6, align 8
  %49 = load i32, ptr %7, align 4
  %50 = insertvalue { ptr, i32 } poison, ptr %48, 0
  %51 = insertvalue { ptr, i32 } %50, i32 %49, 1
  resume { ptr, i32 } %51
}