; Function Attrs: mustprogress uwtable
define dso_local void @_ZN4Luau7Fixture10dumpErrorsERKNS_6ModuleE(ptr noundef nonnull align 8 dereferenceable(2232) %0, ptr noundef nonnull readonly align 8 captures(none) dereferenceable(952) %1) local_unnamed_addr #6 align 2 personality ptr @__gxx_personality_v0 {
  %3 = alloca %"class.std::__cxx11::basic_stringstream", align 8
  %4 = alloca %"class.std::__cxx11::basic_string", align 8
  %5 = alloca %"struct.doctest::detail::MessageBuilder", align 8
  %6 = alloca %"class.std::__cxx11::basic_string", align 8
  call void @_ZNSt7__cxx1118basic_stringstreamIcSt11char_traitsIcESaIcEEC1Ev(ptr noundef nonnull align 8 dereferenceable(128) %3)
  %7 = getelementptr inbounds nuw i8, ptr %3, i64 16
  %8 = getelementptr inbounds nuw i8, ptr %1, i64 792
  invoke void @_ZN4Luau7Fixture10dumpErrorsERSoRKSt6vectorINS_9TypeErrorESaIS3_EE(ptr noundef nonnull align 8 dereferenceable(2232) %0, ptr noundef nonnull align 8 dereferenceable(8) %7, ptr noundef nonnull align 8 dereferenceable(24) %8)
          to label %9 unwind label %19

9:                                                ; preds = %2
  invoke void @_ZNKSt7__cxx1118basic_stringstreamIcSt11char_traitsIcESaIcEE3strEv(ptr dead_on_unwind nonnull writable sret(%"class.std::__cxx11::basic_string") align 8 %4, ptr noundef nonnull align 8 dereferenceable(128) %3)
          to label %10 unwind label %19

10:                                               ; preds = %9
  %11 = call noundef zeroext i1 @_ZNKSt7__cxx1112basic_stringIcSt11char_traitsIcESaIcEE5emptyEv(ptr noundef nonnull align 8 dereferenceable(32) %4) #27
  call void @_ZNSt7__cxx1112basic_stringIcSt11char_traitsIcESaIcEED1Ev(ptr noundef nonnull align 8 dereferenceable(32) %4) #27
  br i1 %11, label %28, label %12

12:                                               ; preds = %10
  invoke void @_ZN7doctest6detail14MessageBuilderC1EPKciNS_10assertType4EnumE(ptr noundef nonnull align 8 dereferenceable(49) %5, ptr noundef nonnull @.str.61, i32 noundef 521, i32 noundef 1)
          to label %13 unwind label %19

13:                                               ; preds = %12
  invoke void @_ZNKSt7__cxx1118basic_stringstreamIcSt11char_traitsIcESaIcEE3strEv(ptr dead_on_unwind nonnull writable sret(%"class.std::__cxx11::basic_string") align 8 %6, ptr noundef nonnull align 8 dereferenceable(128) %3)
          to label %14 unwind label %21

14:                                               ; preds = %13
  %15 = invoke noundef nonnull align 8 dereferenceable(49) ptr @_ZN7doctest6detail14MessageBuildercmINSt7__cxx1112basic_stringIcSt11char_traitsIcESaIcEEEEERS1_RKT_(ptr noundef nonnull align 8 dereferenceable(49) %5, ptr noundef nonnull align 8 dereferenceable(32) %6)
          to label %_ZN7doctest6detail14MessageBuildermlINSt7__cxx1112basic_stringIcSt11char_traitsIcESaIcEEEEERS1_RKT_.exit unwind label %23

_ZN7doctest6detail14MessageBuildermlINSt7__cxx1112basic_stringIcSt11char_traitsIcESaIcEEEEERS1_RKT_.exit: ; preds = %14
  call void @_ZNSt7__cxx1112basic_stringIcSt11char_traitsIcESaIcEED1Ev(ptr noundef nonnull align 8 dereferenceable(32) %6) #27
  %16 = invoke noundef zeroext i1 @_ZN7doctest6detail14MessageBuilder3logEv(ptr noundef nonnull align 8 dereferenceable(49) %5)
          to label %17 unwind label %21

17:                                               ; preds = %_ZN7doctest6detail14MessageBuildermlINSt7__cxx1112basic_stringIcSt11char_traitsIcESaIcEEEEERS1_RKT_.exit
  br i1 %16, label %18, label %25

18:                                               ; preds = %17
  call void asm sideeffect "int $$3\0A", "~{dirflag},~{fpsr},~{flags}"() #27, !srcloc !96
  br label %25

19:                                               ; preds = %12, %9, %2
  %20 = landingpad { ptr, i32 }
          cleanup
  br label %29

21:                                               ; preds = %25, %_ZN7doctest6detail14MessageBuildermlINSt7__cxx1112basic_stringIcSt11char_traitsIcESaIcEEEEERS1_RKT_.exit, %13
  %22 = landingpad { ptr, i32 }
          cleanup
  br label %27

23:                                               ; preds = %14
  %24 = landingpad { ptr, i32 }
          cleanup
  call void @_ZNSt7__cxx1112basic_stringIcSt11char_traitsIcESaIcEED1Ev(ptr noundef nonnull align 8 dereferenceable(32) %6) #27
  br label %27

25:                                               ; preds = %18, %17
  invoke void @_ZN7doctest6detail14MessageBuilder5reactEv(ptr noundef nonnull align 8 dereferenceable(49) %5)
          to label %26 unwind label %21

26:                                               ; preds = %25
  call void @_ZN7doctest6detail14MessageBuilderD1Ev(ptr noundef nonnull align 8 dereferenceable(49) %5) #27
  br label %28

27:                                               ; preds = %23, %21
  %.pn = phi { ptr, i32 } [ %22, %21 ], [ %24, %23 ]
  call void @_ZN7doctest6detail14MessageBuilderD1Ev(ptr noundef nonnull align 8 dereferenceable(49) %5) #27
  br label %29

28:                                               ; preds = %26, %10
  call void @_ZNSt7__cxx1118basic_stringstreamIcSt11char_traitsIcESaIcEED1Ev(ptr noundef nonnull align 8 dereferenceable(128) %3) #27
  ret void

29:                                               ; preds = %27, %19
  %.pn.pn = phi { ptr, i32 } [ %.pn, %27 ], [ %20, %19 ]
  call void @_ZNSt7__cxx1118basic_stringstreamIcSt11char_traitsIcESaIcEED1Ev(ptr noundef nonnull align 8 dereferenceable(128) %3) #27
  resume { ptr, i32 } %.pn.pn
}